target datalayout = "e-m:e-p270:32:32-p271:32:32-p272:64:64-i64:64-i128:128-f80:128-n8:16:32:64-S128"
target triple = "x86_64-pc-linux-gnu"

%struct.LexState = type { i32, i32, i32, %struct.Token, %struct.Token, ptr, ptr, ptr, ptr, ptr, i8 }
%struct.Token = type { i32, %union.SemInfo }
%union.SemInfo = type { double }

@.str.140 = private unnamed_addr constant [9 x i8] c"char(%d)\00", align 1
@.str.141 = private unnamed_addr constant [3 x i8] c"%c\00", align 1
@.str.165 = private unnamed_addr constant [41 x i8] c"'%s' expected (to close '%s' at line %d)\00", align 1
@.str.166 = private unnamed_addr constant [14 x i8] c"'%s' expected\00", align 1

; Function Attrs: nounwind uwtable
define internal void @luaX_next(ptr noundef %0) #0 {
  %2 = alloca ptr, align 8
  store ptr %0, ptr %2, align 8, !tbaa !327
  %3 = load ptr, ptr %2, align 8, !tbaa !327
  %4 = getelementptr inbounds nuw %struct.LexState, ptr %3, i32 0, i32 1
  %5 = load i32, ptr %4, align 4, !tbaa !333
  %6 = load ptr, ptr %2, align 8, !tbaa !327
  %7 = getelementptr inbounds nuw %struct.LexState, ptr %6, i32 0, i32 2
  store i32 %5, ptr %7, align 8, !tbaa !334
  %8 = load ptr, ptr %2, align 8, !tbaa !327
  %9 = getelementptr inbounds nuw %struct.LexState, ptr %8, i32 0, i32 4
  %10 = getelementptr inbounds nuw %struct.Token, ptr %9, i32 0, i32 0
  %11 = load i32, ptr %10, align 8, !tbaa !330
  %12 = icmp ne i32 %11, 287
  br i1 %12, label %13, label %21

13:                                               ; preds = %1
  %14 = load ptr, ptr %2, align 8, !tbaa !327
  %15 = getelementptr inbounds nuw %struct.LexState, ptr %14, i32 0, i32 3
  %16 = load ptr, ptr %2, align 8, !tbaa !327
  %17 = getelementptr inbounds nuw %struct.LexState, ptr %16, i32 0, i32 4
  call void @llvm.memcpy.p0.p0.i64(ptr align 8 %15, ptr align 8 %17, i64 16, i1 false), !tbaa.struct !351
  %18 = load ptr, ptr %2, align 8, !tbaa !327
  %19 = getelementptr inbounds nuw %struct.LexState, ptr %18, i32 0, i32 4
  %20 = getelementptr inbounds nuw %struct.Token, ptr %19, i32 0, i32 0
  store i32 287, ptr %20, align 8, !tbaa !330
  br label %30

21:                                               ; preds = %1
  %22 = load ptr, ptr %2, align 8, !tbaa !327
  %23 = load ptr, ptr %2, align 8, !tbaa !327
  %24 = getelementptr inbounds nuw %struct.LexState, ptr %23, i32 0, i32 3
  %25 = getelementptr inbounds nuw %struct.Token, ptr %24, i32 0, i32 1
  %26 = call i32 @llex(ptr noundef %22, ptr noundef %25)
  %27 = load ptr, ptr %2, align 8, !tbaa !327
  %28 = getelementptr inbounds nuw %struct.LexState, ptr %27, i32 0, i32 3
  %29 = getelementptr inbounds nuw %struct.Token, ptr %28, i32 0, i32 0
  store i32 %26, ptr %29, align 8, !tbaa !352
  br label %30

30:                                               ; preds = %21, %13
  ret void
}

; Function Attrs: nounwind uwtable
define internal void @luaX_syntaxerror(ptr noundef %0, ptr noundef %1) #0 {
  %3 = alloca ptr, align 8
  %4 = alloca ptr, align 8
  store ptr %0, ptr %3, align 8, !tbaa !327
  store ptr %1, ptr %4, align 8, !tbaa !13
  %5 = load ptr, ptr %3, align 8, !tbaa !327
  %6 = load ptr, ptr %4, align 8, !tbaa !13
  %7 = load ptr, ptr %3, align 8, !tbaa !327
  %8 = getelementptr inbounds nuw %struct.LexState, ptr %7, i32 0, i32 3
  %9 = getelementptr inbounds nuw %struct.Token, ptr %8, i32 0, i32 0
  %10 = load i32, ptr %9, align 8, !tbaa !352
  call void @luaX_lexerror(ptr noundef %5, ptr noundef %6, i32 noundef %10)
  ret void
}

; Function Attrs: nounwind uwtable
define internal ptr @luaX_token2str(ptr noundef %0, i32 noundef %1) #0 {
  %3 = alloca ptr, align 8
  %4 = alloca ptr, align 8
  %5 = alloca i32, align 4
  store ptr %0, ptr %4, align 8, !tbaa !327
  store i32 %1, ptr %5, align 4, !tbaa !4
  %6 = load i32, ptr %5, align 4, !tbaa !4
  %7 = icmp slt i32 %6, 257
  br i1 %7, label %8, label %32

8:                                                ; preds = %2
  %9 = call ptr @__ctype_b_loc() #19
  %10 = load ptr, ptr %9, align 8, !tbaa !235
  %11 = load i32, ptr %5, align 4, !tbaa !4
  %12 = sext i32 %11 to i64
  %13 = getelementptr inbounds i16, ptr %10, i64 %12
  %14 = load i16, ptr %13, align 2, !tbaa !237
  %15 = zext i16 %14 to i32
  %16 = and i32 %15, 2
  %17 = icmp ne i32 %16, 0
  br i1 %17, label %18, label %24

18:                                               ; preds = %8
  %19 = load ptr, ptr %4, align 8, !tbaa !327
  %20 = getelementptr inbounds nuw %struct.LexState, ptr %19, i32 0, i32 6
  %21 = load ptr, ptr %20, align 8, !tbaa !329
  %22 = load i32, ptr %5, align 4, !tbaa !4
  %23 = call ptr (ptr, ptr, ...) @luaO_pushfstring(ptr noundef %21, ptr noundef @.str.140, i32 noundef %22)
  br label %30

24:                                               ; preds = %8
  %25 = load ptr, ptr %4, align 8, !tbaa !327
  %26 = getelementptr inbounds nuw %struct.LexState, ptr %25, i32 0, i32 6
  %27 = load ptr, ptr %26, align 8, !tbaa !329
  %28 = load i32, ptr %5, align 4, !tbaa !4
  %29 = call ptr (ptr, ptr, ...) @luaO_pushfstring(ptr noundef %27, ptr noundef @.str.141, i32 noundef %28)
  br label %30

30:                                               ; preds = %24, %18
  %31 = phi ptr [ %23, %18 ], [ %29, %24 ]
  store ptr %31, ptr %3, align 8
  br label %38

32:                                               ; preds = %2
  %33 = load i32, ptr %5, align 4, !tbaa !4
  %34 = sub nsw i32 %33, 257
  %35 = sext i32 %34 to i64
  %36 = getelementptr inbounds [32 x ptr], ptr @luaX_tokens, i64 0, i64 %35
  %37 = load ptr, ptr %36, align 8, !tbaa !13
  store ptr %37, ptr %3, align 8
  br label %38

38:                                               ; preds = %32, %30
  %39 = load ptr, ptr %3, align 8
  ret ptr %39
}

; Function Attrs: nounwind uwtable
define internal void @error_expected(ptr noundef %0, i32 noundef %1) #0 {
  %3 = alloca ptr, align 8
  %4 = alloca i32, align 4
  store ptr %0, ptr %3, align 8, !tbaa !327
  store i32 %1, ptr %4, align 4, !tbaa !4
  %5 = load ptr, ptr %3, align 8, !tbaa !327
  %6 = load ptr, ptr %3, align 8, !tbaa !327
  %7 = getelementptr inbounds nuw %struct.LexState, ptr %6, i32 0, i32 6
  %8 = load ptr, ptr %7, align 8, !tbaa !329
  %9 = load ptr, ptr %3, align 8, !tbaa !327
  %10 = load i32, ptr %4, align 4, !tbaa !4
  %11 = call ptr @luaX_token2str(ptr noundef %9, i32 noundef %10)
  %12 = call ptr (ptr, ptr, ...) @luaO_pushfstring(ptr noundef %8, ptr noundef @.str.166, ptr noundef %11)
  call void @luaX_syntaxerror(ptr noundef %5, ptr noundef %12)
  ret void
}

; Function Attrs: nounwind uwtable
define internal i32 @testnext(ptr noundef %0, i32 noundef %1) #0 {
  %3 = alloca i32, align 4
  %4 = alloca ptr, align 8
  %5 = alloca i32, align 4
  store ptr %0, ptr %4, align 8, !tbaa !327
  store i32 %1, ptr %5, align 4, !tbaa !4
  %6 = load ptr, ptr %4, align 8, !tbaa !327
  %7 = getelementptr inbounds nuw %struct.LexState, ptr %6, i32 0, i32 3
  %8 = getelementptr inbounds nuw %struct.Token, ptr %7, i32 0, i32 0
  %9 = load i32, ptr %8, align 8, !tbaa !352
  %10 = load i32, ptr %5, align 4, !tbaa !4
  %11 = icmp eq i32 %9, %10
  br i1 %11, label %12, label %14

12:                                               ; preds = %2
  %13 = load ptr, ptr %4, align 8, !tbaa !327
  call void @luaX_next(ptr noundef %13)
  store i32 1, ptr %3, align 4
  br label %15

14:                                               ; preds = %2
  store i32 0, ptr %3, align 4
  br label %15

15:                                               ; preds = %14, %12
  %16 = load i32, ptr %3, align 4
  ret i32 %16
}

; Function Attrs: nounwind uwtable
define internal void @check_match(ptr noundef %0, i32 noundef %1, i32 noundef %2, i32 noundef %3) #0 {
  %5 = alloca ptr, align 8
  %6 = alloca i32, align 4
  %7 = alloca i32, align 4
  %8 = alloca i32, align 4
  store ptr %0, ptr %5, align 8, !tbaa !327
  store i32 %1, ptr %6, align 4, !tbaa !4
  store i32 %2, ptr %7, align 4, !tbaa !4
  store i32 %3, ptr %8, align 4, !tbaa !4
  %9 = load ptr, ptr %5, align 8, !tbaa !327
  %10 = load i32, ptr %6, align 4, !tbaa !4
  %11 = call i32 @testnext(ptr noundef %9, i32 noundef %10)
  %12 = icmp ne i32 %11, 0
  br i1 %12, label %36, label %13

13:                                               ; preds = %4
  %14 = load i32, ptr %8, align 4, !tbaa !4
  %15 = load ptr, ptr %5, align 8, !tbaa !327
  %16 = getelementptr inbounds nuw %struct.LexState, ptr %15, i32 0, i32 1
  %17 = load i32, ptr %16, align 4, !tbaa !333
  %18 = icmp eq i32 %14, %17
  br i1 %18, label %19, label %22

19:                                               ; preds = %13
  %20 = load ptr, ptr %5, align 8, !tbaa !327
  %21 = load i32, ptr %6, align 4, !tbaa !4
  call void @error_expected(ptr noundef %20, i32 noundef %21)
  br label %35

22:                                               ; preds = %13
  %23 = load ptr, ptr %5, align 8, !tbaa !327
  %24 = load ptr, ptr %5, align 8, !tbaa !327
  %25 = getelementptr inbounds nuw %struct.LexState, ptr %24, i32 0, i32 6
  %26 = load ptr, ptr %25, align 8, !tbaa !329
  %27 = load ptr, ptr %5, align 8, !tbaa !327
  %28 = load i32, ptr %6, align 4, !tbaa !4
  %29 = call ptr @luaX_token2str(ptr noundef %27, i32 noundef %28)
  %30 = load ptr, ptr %5, align 8, !tbaa !327
  %31 = load i32, ptr %7, align 4, !tbaa !4
  %32 = call ptr @luaX_token2str(ptr noundef %30, i32 noundef %31)
  %33 = load i32, ptr %8, align 4, !tbaa !4
  %34 = call ptr (ptr, ptr, ...) @luaO_pushfstring(ptr noundef %26, ptr noundef @.str.165, ptr noundef %29, ptr noundef %32, i32 noundef %33)
  call void @luaX_syntaxerror(ptr noundef %23, ptr noundef %34)
  br label %35

35:                                               ; preds = %22, %19
  br label %36

36:                                               ; preds = %35, %4
  ret void
}