; Function Attrs: nounwind uwtable
define internal fastcc void @check_match(ptr noundef nonnull captures(address_is_null) %0, i32 noundef range(i32 41, 277) %1, i32 noundef range(i32 40, 278) %2, i32 noundef %3) unnamed_addr #0 {
  %5 = getelementptr inbounds nuw i8, ptr %0, i64 16
  %6 = load i32, ptr %5, align 8, !tbaa !301
  %7 = icmp eq i32 %6, %1
  %8 = getelementptr inbounds nuw i8, ptr %0, i64 4
  %9 = load i32, ptr %8, align 4, !tbaa !290
  br i1 %7, label %10, label %testnext.exit

10:                                               ; preds = %4
  %11 = getelementptr inbounds nuw i8, ptr %0, i64 8
  store i32 %9, ptr %11, align 8, !tbaa !291
  %12 = getelementptr inbounds nuw i8, ptr %0, i64 32
  %13 = load i32, ptr %12, align 8, !tbaa !287
  %.not.i.i = icmp eq i32 %13, 287
  br i1 %.not.i.i, label %15, label %14

14:                                               ; preds = %10
  tail call void @llvm.memcpy.p0.p0.i64(ptr noundef nonnull align 8 dereferenceable(16) %5, ptr noundef nonnull align 8 dereferenceable(16) %12, i64 16, i1 false), !tbaa.struct !300
  store i32 287, ptr %12, align 8, !tbaa !287
  br label %testnext.exit.thread

15:                                               ; preds = %10
  %16 = getelementptr inbounds nuw i8, ptr %0, i64 24
  %17 = tail call fastcc i32 @llex(ptr noundef nonnull %0, ptr noundef %16)
  store i32 %17, ptr %5, align 8, !tbaa !301
  br label %testnext.exit.thread

testnext.exit:                                    ; preds = %4
  %18 = icmp eq i32 %3, %9
  %19 = getelementptr inbounds nuw i8, ptr %0, i64 56
  %20 = load ptr, ptr %19, align 8, !tbaa !286
  %21 = icmp samesign ult i32 %1, 257
  br i1 %18, label %22, label %41

22:                                               ; preds = %testnext.exit
  br i1 %21, label %23, label %34

23:                                               ; preds = %22
  %24 = tail call ptr @__ctype_b_loc() #42
  %25 = load ptr, ptr %24, align 8, !tbaa !176
  %26 = zext nneg i32 %1 to i64
  %27 = getelementptr inbounds nuw i16, ptr %25, i64 %26
  %28 = load i16, ptr %27, align 2, !tbaa !178
  %29 = and i16 %28, 2
  %.not.i.i12 = icmp eq i16 %29, 0
  br i1 %.not.i.i12, label %32, label %30

30:                                               ; preds = %23
  %31 = tail call ptr (ptr, ptr, ...) @luaO_pushfstring(ptr noundef %20, ptr noundef nonnull @.str.140, i32 noundef range(i32 40, 288) %1)
  br label %luaX_token2str.exit.i

32:                                               ; preds = %23
  %33 = tail call ptr (ptr, ptr, ...) @luaO_pushfstring(ptr noundef %20, ptr noundef nonnull @.str.141, i32 noundef range(i32 40, 288) %1)
  br label %luaX_token2str.exit.i

34:                                               ; preds = %22
  %35 = add nsw i32 %1, -257
  %36 = zext nneg i32 %35 to i64
  %37 = getelementptr inbounds nuw [32 x ptr], ptr @luaX_tokens, i64 0, i64 %36
  %38 = load ptr, ptr %37, align 8, !tbaa !70
  br label %luaX_token2str.exit.i

luaX_token2str.exit.i:                            ; preds = %34, %32, %30
  %.0.i.i = phi ptr [ %38, %34 ], [ %31, %30 ], [ %33, %32 ]
  %39 = tail call ptr (ptr, ptr, ...) @luaO_pushfstring(ptr noundef %20, ptr noundef nonnull @.str.166, ptr noundef %.0.i.i)
  %40 = load i32, ptr %5, align 8, !tbaa !301
  tail call fastcc void @luaX_lexerror(ptr noundef nonnull readonly %0, ptr noundef %39, i32 noundef %40)
  unreachable

41:                                               ; preds = %testnext.exit
  br i1 %21, label %42, label %53

42:                                               ; preds = %41
  %43 = tail call ptr @__ctype_b_loc() #42
  %44 = load ptr, ptr %43, align 8, !tbaa !176
  %45 = zext nneg i32 %1 to i64
  %46 = getelementptr inbounds nuw i16, ptr %44, i64 %45
  %47 = load i16, ptr %46, align 2, !tbaa !178
  %48 = and i16 %47, 2
  %.not.i = icmp eq i16 %48, 0
  br i1 %.not.i, label %51, label %49

49:                                               ; preds = %42
  %50 = tail call ptr (ptr, ptr, ...) @luaO_pushfstring(ptr noundef %20, ptr noundef nonnull @.str.140, i32 noundef range(i32 1, 0) %1)
  br label %luaX_token2str.exit

51:                                               ; preds = %42
  %52 = tail call ptr (ptr, ptr, ...) @luaO_pushfstring(ptr noundef %20, ptr noundef nonnull @.str.141, i32 noundef range(i32 1, 0) %1)
  br label %luaX_token2str.exit

53:                                               ; preds = %41
  %54 = add nsw i32 %1, -257
  %55 = zext nneg i32 %54 to i64
  %56 = getelementptr inbounds nuw [32 x ptr], ptr @luaX_tokens, i64 0, i64 %55
  %57 = load ptr, ptr %56, align 8, !tbaa !70
  br label %luaX_token2str.exit

luaX_token2str.exit:                              ; preds = %49, %51, %53
  %.0.i13 = phi ptr [ %57, %53 ], [ %50, %49 ], [ %52, %51 ]
  %58 = icmp samesign ult i32 %2, 257
  br i1 %58, label %59, label %71

59:                                               ; preds = %luaX_token2str.exit
  %60 = tail call ptr @__ctype_b_loc() #42
  %61 = load ptr, ptr %60, align 8, !tbaa !176
  %62 = zext nneg i32 %2 to i64
  %63 = getelementptr inbounds nuw i16, ptr %61, i64 %62
  %64 = load i16, ptr %63, align 2, !tbaa !178
  %65 = and i16 %64, 2
  %.not.i15 = icmp eq i16 %65, 0
  %66 = load ptr, ptr %19, align 8, !tbaa !286
  br i1 %.not.i15, label %69, label %67

67:                                               ; preds = %59
  %68 = tail call ptr (ptr, ptr, ...) @luaO_pushfstring(ptr noundef %66, ptr noundef nonnull @.str.140, i32 noundef range(i32 1, 0) %2)
  br label %luaX_token2str.exit16

69:                                               ; preds = %59
  %70 = tail call ptr (ptr, ptr, ...) @luaO_pushfstring(ptr noundef %66, ptr noundef nonnull @.str.141, i32 noundef range(i32 1, 0) %2)
  br label %luaX_token2str.exit16

71:                                               ; preds = %luaX_token2str.exit
  %72 = add nsw i32 %2, -257
  %73 = zext nneg i32 %72 to i64
  %74 = getelementptr inbounds nuw [32 x ptr], ptr @luaX_tokens, i64 0, i64 %73
  %75 = load ptr, ptr %74, align 8, !tbaa !70
  br label %luaX_token2str.exit16

luaX_token2str.exit16:                            ; preds = %67, %69, %71
  %.0.i14 = phi ptr [ %75, %71 ], [ %68, %67 ], [ %70, %69 ]
  %76 = tail call ptr (ptr, ptr, ...) @luaO_pushfstring(ptr noundef %20, ptr noundef nonnull @.str.165, ptr noundef %.0.i13, ptr noundef %.0.i14, i32 noundef %3)
  %77 = load i32, ptr %5, align 8, !tbaa !301
  tail call fastcc void @luaX_lexerror(ptr noundef nonnull readonly %0, ptr noundef %76, i32 noundef %77)
  unreachable

testnext.exit.thread:                             ; preds = %15, %14
  ret void
}